target datalayout = "e-m:e-p270:32:32-p271:32:32-p272:64:64-i64:64-i128:128-f80:128-n8:16:32:64-S128"
target triple = "x86_64-pc-linux-gnu"

%"class.std::__cxx11::basic_string" = type { %"struct.std::__cxx11::basic_string<char>::_Alloc_hider", i64, %union.anon }
%"struct.std::__cxx11::basic_string<char>::_Alloc_hider" = type { ptr }
%union.anon = type { i64, [8 x i8] }
%"class.google::protobuf::FieldDescriptor" = type { %"class.google::protobuf::internal::SymbolBase", i8, i8, i8, i32, ptr, ptr, ptr, ptr, %union.anon.37, %union.anon.38, ptr, %union.anon.39 }
%"class.google::protobuf::internal::SymbolBase" = type { i8 }
%union.anon.37 = type { ptr }
%union.anon.38 = type { ptr }
%union.anon.39 = type { i64 }
%"class.google::protobuf::Descriptor" = type { %"class.google::protobuf::internal::SymbolBase", i8, i16, i32, ptr, ptr, ptr, ptr, ptr, ptr, ptr, ptr, ptr, ptr, ptr, ptr, i32, i32, i32, i32, i32, i32, i32, i32 }
%class.anon = type { ptr, ptr }
%"struct.std::once_flag::_Prepare_execution" = type { i8 }
%"struct.std::once_flag" = type { i32 }
%class.anon.137 = type { i8 }

@.str.11 = private unnamed_addr constant [2 x i8] c"[\00", align 1
@.str.12 = private unnamed_addr constant [2 x i8] c"]\00", align 1
@_ZSt15__once_callable = external thread_local global ptr, align 8
@_ZSt11__once_call = external thread_local global ptr, align 8

; Function Attrs: inlinehint mustprogress nounwind uwtable
define internal noundef i32 @_ZL18__gthread_active_pv() #7 {
  ret i32 1
}

; Function Attrs: inlinehint mustprogress nounwind uwtable
define linkonce_odr hidden noundef ptr @_ZZNSt9once_flag18_Prepare_executionC1IZSt9call_onceIPFvPKN6google8protobuf15FieldDescriptorEEJS7_EEvRS_OT_DpOT0_EUlvE_EERSB_ENKUlvE_cvPFvvEEv(ptr noundef nonnull align 1 dereferenceable(1) %0) #7 comdat align 2 {
  %2 = alloca ptr, align 8
  store ptr %0, ptr %2, align 8, !tbaa !196
  ret ptr @_ZZNSt9once_flag18_Prepare_executionC1IZSt9call_onceIPFvPKN6google8protobuf15FieldDescriptorEEJS7_EEvRS_OT_DpOT0_EUlvE_EERSB_ENUlvE_8__invokeEv
}

; Function Attrs: mustprogress nounwind uwtable
define linkonce_odr hidden void @_ZNSt9once_flag18_Prepare_executionD2Ev(ptr noundef nonnull align 1 dereferenceable(1) %0) unnamed_addr #5 comdat align 2 {
  %2 = alloca ptr, align 8
  store ptr %0, ptr %2, align 8, !tbaa !518
  %3 = call align 8 ptr @llvm.threadlocal.address.p0(ptr align 8 @_ZSt15__once_callable)
  store ptr null, ptr %3, align 8, !tbaa !196
  %4 = call align 8 ptr @llvm.threadlocal.address.p0(ptr align 8 @_ZSt11__once_call)
  store ptr null, ptr %4, align 8, !tbaa !196
  ret void
}

; Function Attrs: inlinehint mustprogress uwtable
define internal noundef i32 @_ZL14__gthread_oncePiPFvvE(ptr noundef %0, ptr noundef %1) #10 {
  %3 = alloca i32, align 4
  %4 = alloca ptr, align 8
  %5 = alloca ptr, align 8
  store ptr %0, ptr %4, align 8, !tbaa !520
  store ptr %1, ptr %5, align 8, !tbaa !196
  %6 = call noundef i32 @_ZL18__gthread_active_pv()
  %7 = icmp ne i32 %6, 0
  br i1 %7, label %8, label %12

8:                                                ; preds = %2
  %9 = load ptr, ptr %4, align 8, !tbaa !520
  %10 = load ptr, ptr %5, align 8, !tbaa !196
  %11 = call i32 @pthread_once(ptr noundef %9, ptr noundef %10)
  store i32 %11, ptr %3, align 4
  br label %13

12:                                               ; preds = %2
  store i32 -1, ptr %3, align 4
  br label %13

13:                                               ; preds = %12, %8
  %14 = load i32, ptr %3, align 4
  ret i32 %14
}

; Function Attrs: mustprogress nounwind uwtable
define linkonce_odr hidden void @_ZNSt9once_flag18_Prepare_executionC2IZSt9call_onceIPFvPKN6google8protobuf15FieldDescriptorEEJS7_EEvRS_OT_DpOT0_EUlvE_EERSB_(ptr noundef nonnull align 1 dereferenceable(1) %0, ptr noundef nonnull align 8 dereferenceable(16) %1) unnamed_addr #5 comdat align 2 {
  %3 = alloca ptr, align 8
  %4 = alloca ptr, align 8
  %5 = alloca %class.anon.137, align 1
  store ptr %0, ptr %3, align 8, !tbaa !518
  store ptr %1, ptr %4, align 8, !tbaa !196
  %6 = load ptr, ptr %4, align 8, !tbaa !196
  %7 = call align 8 ptr @llvm.threadlocal.address.p0(ptr align 8 @_ZSt15__once_callable)
  store ptr %6, ptr %7, align 8, !tbaa !196
  call void @llvm.lifetime.start.p0(i64 1, ptr %5) #3
  %8 = call noundef ptr @_ZZNSt9once_flag18_Prepare_executionC1IZSt9call_onceIPFvPKN6google8protobuf15FieldDescriptorEEJS7_EEvRS_OT_DpOT0_EUlvE_EERSB_ENKUlvE_cvPFvvEEv(ptr noundef nonnull align 1 dereferenceable(1) %5) #3
  %9 = call align 8 ptr @llvm.threadlocal.address.p0(ptr align 8 @_ZSt11__once_call)
  store ptr %8, ptr %9, align 8, !tbaa !196
  call void @llvm.lifetime.end.p0(i64 1, ptr %5) #3
  ret void
}

; Function Attrs: mustprogress uwtable
define linkonce_odr hidden void @_ZSt9call_onceIPFvPKN6google8protobuf15FieldDescriptorEEJS4_EEvRSt9once_flagOT_DpOT0_(ptr noundef nonnull align 4 dereferenceable(4) %0, ptr noundef nonnull align 8 dereferenceable(8) %1, ptr noundef nonnull align 8 dereferenceable(8) %2) #4 comdat personality ptr @__gxx_personality_v0 {
  %4 = alloca ptr, align 8
  %5 = alloca ptr, align 8
  %6 = alloca ptr, align 8
  %7 = alloca %class.anon, align 8
  %8 = alloca %"struct.std::once_flag::_Prepare_execution", align 1
  %9 = alloca i32, align 4
  %10 = alloca ptr, align 8
  %11 = alloca i32, align 4
  store ptr %0, ptr %4, align 8, !tbaa !516
  store ptr %1, ptr %5, align 8, !tbaa !517
  store ptr %2, ptr %6, align 8, !tbaa !62
  call void @llvm.lifetime.start.p0(i64 16, ptr %7) #3
  %12 = getelementptr inbounds nuw %class.anon, ptr %7, i32 0, i32 0
  %13 = load ptr, ptr %5, align 8, !tbaa !517
  store ptr %13, ptr %12, align 8, !tbaa !517
  %14 = getelementptr inbounds nuw %class.anon, ptr %7, i32 0, i32 1
  %15 = load ptr, ptr %6, align 8, !tbaa !62
  store ptr %15, ptr %14, align 8, !tbaa !62
  call void @llvm.lifetime.start.p0(i64 1, ptr %8) #3
  call void @_ZNSt9once_flag18_Prepare_executionC2IZSt9call_onceIPFvPKN6google8protobuf15FieldDescriptorEEJS7_EEvRS_OT_DpOT0_EUlvE_EERSB_(ptr noundef nonnull align 1 dereferenceable(1) %8, ptr noundef nonnull align 8 dereferenceable(16) %7)
  call void @llvm.lifetime.start.p0(i64 4, ptr %9) #3
  %16 = load ptr, ptr %4, align 8, !tbaa !516
  %17 = getelementptr inbounds nuw %"struct.std::once_flag", ptr %16, i32 0, i32 0
  %18 = invoke noundef i32 @_ZL14__gthread_oncePiPFvvE(ptr noundef %17, ptr noundef @__once_proxy)
          to label %19 unwind label %25

19:                                               ; preds = %3
  store i32 %18, ptr %9, align 4, !tbaa !95
  %20 = load i32, ptr %9, align 4, !tbaa !95
  %21 = icmp ne i32 %20, 0
  br i1 %21, label %22, label %29

22:                                               ; preds = %19
  %23 = load i32, ptr %9, align 4, !tbaa !95
  invoke void @_ZSt20__throw_system_errori(i32 noundef %23) #25
          to label %24 unwind label %25

24:                                               ; preds = %22
  unreachable

25:                                               ; preds = %22, %3
  %26 = landingpad { ptr, i32 }
          cleanup
  %27 = extractvalue { ptr, i32 } %26, 0
  store ptr %27, ptr %10, align 8
  %28 = extractvalue { ptr, i32 } %26, 1
  store i32 %28, ptr %11, align 4
  call void @llvm.lifetime.end.p0(i64 4, ptr %9) #3
  call void @_ZNSt9once_flag18_Prepare_executionD2Ev(ptr noundef nonnull align 1 dereferenceable(1) %8) #3
  call void @llvm.lifetime.end.p0(i64 1, ptr %8) #3
  call void @llvm.lifetime.end.p0(i64 16, ptr %7) #3
  br label %30

29:                                               ; preds = %19
  call void @llvm.lifetime.end.p0(i64 4, ptr %9) #3
  call void @_ZNSt9once_flag18_Prepare_executionD2Ev(ptr noundef nonnull align 1 dereferenceable(1) %8) #3
  call void @llvm.lifetime.end.p0(i64 1, ptr %8) #3
  call void @llvm.lifetime.end.p0(i64 16, ptr %7) #3
  ret void

30:                                               ; preds = %25
  %31 = load ptr, ptr %10, align 8
  %32 = load i32, ptr %11, align 4
  %33 = insertvalue { ptr, i32 } poison, ptr %31, 0
  %34 = insertvalue { ptr, i32 } %33, i32 %32, 1
  resume { ptr, i32 } %34
}

; Function Attrs: mustprogress nounwind uwtable
define available_externally noundef ptr @_ZNKSt7__cxx1112basic_stringIcSt11char_traitsIcESaIcEE7_M_dataEv(ptr noundef nonnull align 8 dereferenceable(32) %0) #5 align 2 {
  %2 = alloca ptr, align 8
  store ptr %0, ptr %2, align 8, !tbaa !8
  %3 = load ptr, ptr %2, align 8
  %4 = getelementptr inbounds nuw %"class.std::__cxx11::basic_string", ptr %3, i32 0, i32 0
  %5 = getelementptr inbounds nuw %"struct.std::__cxx11::basic_string<char>::_Alloc_hider", ptr %4, i32 0, i32 0
  %6 = load ptr, ptr %5, align 8, !tbaa !460
  ret ptr %6
}

; Function Attrs: mustprogress uwtable
define linkonce_odr hidden void @_ZN6google8protobuf8internal9call_onceIJRSt9once_flagPFvPKNS0_15FieldDescriptorEES7_EEEvDpOT_(ptr noundef nonnull align 4 dereferenceable(4) %0, ptr noundef nonnull align 8 dereferenceable(8) %1, ptr noundef nonnull align 8 dereferenceable(8) %2) #4 comdat {
  %4 = alloca ptr, align 8
  %5 = alloca ptr, align 8
  %6 = alloca ptr, align 8
  store ptr %0, ptr %4, align 8, !tbaa !516
  store ptr %1, ptr %5, align 8, !tbaa !517
  store ptr %2, ptr %6, align 8, !tbaa !62
  %7 = load ptr, ptr %4, align 8, !tbaa !516
  %8 = load ptr, ptr %5, align 8, !tbaa !517
  %9 = load ptr, ptr %6, align 8, !tbaa !62
  call void @_ZSt9call_onceIPFvPKN6google8protobuf15FieldDescriptorEEJS4_EEvRSt9once_flagOT_DpOT0_(ptr noundef nonnull align 4 dereferenceable(4) %7, ptr noundef nonnull align 8 dereferenceable(8) %8, ptr noundef nonnull align 8 dereferenceable(8) %9)
  ret void
}

; Function Attrs: mustprogress nounwind uwtable
define available_externally noundef i64 @_ZNKSt7__cxx1112basic_stringIcSt11char_traitsIcESaIcEE4sizeEv(ptr noundef nonnull align 8 dereferenceable(32) %0) #5 align 2 {
  %2 = alloca ptr, align 8
  store ptr %0, ptr %2, align 8, !tbaa !8
  %3 = load ptr, ptr %2, align 8
  %4 = getelementptr inbounds nuw %"class.std::__cxx11::basic_string", ptr %3, i32 0, i32 1
  %5 = load i64, ptr %4, align 8, !tbaa !52
  ret i64 %5
}

; Function Attrs: mustprogress nounwind uwtable
define available_externally noundef ptr @_ZNKSt7__cxx1112basic_stringIcSt11char_traitsIcESaIcEE4dataEv(ptr noundef nonnull align 8 dereferenceable(32) %0) #5 align 2 {
  %2 = alloca ptr, align 8
  store ptr %0, ptr %2, align 8, !tbaa !8
  %3 = load ptr, ptr %2, align 8
  %4 = call noundef ptr @_ZNKSt7__cxx1112basic_stringIcSt11char_traitsIcESaIcEE7_M_dataEv(ptr noundef nonnull align 8 dereferenceable(32) %3)
  ret ptr %4
}

; Function Attrs: inlinehint mustprogress nounwind uwtable
define linkonce_odr hidden noundef nonnull align 8 dereferenceable(32) ptr @_ZNK6google8protobuf15FieldDescriptor4nameB5cxx11Ev(ptr noundef nonnull align 8 dereferenceable(72) %0) #7 comdat align 2 {
  %2 = alloca ptr, align 8
  store ptr %0, ptr %2, align 8, !tbaa !58
  %3 = load ptr, ptr %2, align 8
  %4 = getelementptr inbounds nuw %"class.google::protobuf::FieldDescriptor", ptr %3, i32 0, i32 5
  %5 = load ptr, ptr %4, align 8, !tbaa !96
  %6 = getelementptr inbounds %"class.std::__cxx11::basic_string", ptr %5, i64 0
  ret ptr %6
}

; Function Attrs: inlinehint mustprogress nounwind uwtable
define linkonce_odr hidden noundef nonnull align 8 dereferenceable(32) ptr @_ZNK6google8protobuf10Descriptor4nameB5cxx11Ev(ptr noundef nonnull align 8 dereferenceable(136) %0) #7 comdat align 2 {
  %2 = alloca ptr, align 8
  store ptr %0, ptr %2, align 8, !tbaa !111
  %3 = load ptr, ptr %2, align 8
  %4 = getelementptr inbounds nuw %"class.google::protobuf::Descriptor", ptr %3, i32 0, i32 4
  %5 = load ptr, ptr %4, align 8, !tbaa !198
  %6 = getelementptr inbounds %"class.std::__cxx11::basic_string", ptr %5, i64 0
  ret ptr %6
}

; Function Attrs: inlinehint mustprogress uwtable
define linkonce_odr hidden noundef i32 @_ZNK6google8protobuf15FieldDescriptor4typeEv(ptr noundef nonnull align 8 dereferenceable(72) %0) #10 comdat align 2 {
  %2 = alloca ptr, align 8
  %3 = alloca ptr, align 8
  %4 = alloca ptr, align 8
  store ptr %0, ptr %2, align 8, !tbaa !58
  %5 = load ptr, ptr %2, align 8
  %6 = getelementptr inbounds nuw %"class.google::protobuf::FieldDescriptor", ptr %5, i32 0, i32 7
  %7 = load ptr, ptr %6, align 8, !tbaa !195
  %8 = icmp ne ptr %7, null
  br i1 %8, label %9, label %12

9:                                                ; preds = %1
  %10 = getelementptr inbounds nuw %"class.google::protobuf::FieldDescriptor", ptr %5, i32 0, i32 7
  %11 = load ptr, ptr %10, align 8, !tbaa !195
  call void @llvm.lifetime.start.p0(i64 8, ptr %3) #3
  store ptr @_ZN6google8protobuf15FieldDescriptor12TypeOnceInitEPKS1_, ptr %3, align 8, !tbaa !196
  call void @llvm.lifetime.start.p0(i64 8, ptr %4) #3
  store ptr %5, ptr %4, align 8, !tbaa !58
  call void @_ZN6google8protobuf8internal9call_onceIJRSt9once_flagPFvPKNS0_15FieldDescriptorEES7_EEEvDpOT_(ptr noundef nonnull align 4 dereferenceable(4) %11, ptr noundef nonnull align 8 dereferenceable(8) %3, ptr noundef nonnull align 8 dereferenceable(8) %4)
  call void @llvm.lifetime.end.p0(i64 8, ptr %4) #3
  call void @llvm.lifetime.end.p0(i64 8, ptr %3) #3
  br label %12

12:                                               ; preds = %9, %1
  %13 = getelementptr inbounds nuw %"class.google::protobuf::FieldDescriptor", ptr %5, i32 0, i32 2
  %14 = load i8, ptr %13, align 2, !tbaa !197
  %15 = zext i8 %14 to i32
  ret i32 %15
}

; Function Attrs: mustprogress uwtable
define linkonce_odr hidden void @_ZN6google8protobuf10TextFormat17BaseTextGenerator11PrintStringERKNSt7__cxx1112basic_stringIcSt11char_traitsIcESaIcEEE(ptr noundef nonnull align 8 dereferenceable(8) %0, ptr noundef nonnull align 8 dereferenceable(32) %1) #4 comdat align 2 {
  %3 = alloca ptr, align 8
  %4 = alloca ptr, align 8
  store ptr %0, ptr %3, align 8, !tbaa !174
  store ptr %1, ptr %4, align 8, !tbaa !8
  %5 = load ptr, ptr %3, align 8
  %6 = load ptr, ptr %4, align 8, !tbaa !8
  %7 = call noundef ptr @_ZNKSt7__cxx1112basic_stringIcSt11char_traitsIcESaIcEE4dataEv(ptr noundef nonnull align 8 dereferenceable(32) %6) #3
  %8 = load ptr, ptr %4, align 8, !tbaa !8
  %9 = call noundef i64 @_ZNKSt7__cxx1112basic_stringIcSt11char_traitsIcESaIcEE4sizeEv(ptr noundef nonnull align 8 dereferenceable(32) %8) #3
  %10 = load ptr, ptr %5, align 8, !tbaa !130
  %11 = getelementptr inbounds ptr, ptr %10, i64 5
  %12 = load ptr, ptr %11, align 8
  call void %12(ptr noundef nonnull align 8 dereferenceable(8) %5, ptr noundef %7, i64 noundef %9)
  ret void
}

; Function Attrs: mustprogress uwtable
define linkonce_odr hidden void @_ZN6google8protobuf10TextFormat17BaseTextGenerator12PrintLiteralILm2EEEvRAT__Kc(ptr noundef nonnull align 8 dereferenceable(8) %0, ptr noundef nonnull align 1 dereferenceable(2) %1) #4 comdat align 2 {
  %3 = alloca ptr, align 8
  %4 = alloca ptr, align 8
  store ptr %0, ptr %3, align 8, !tbaa !174
  store ptr %1, ptr %4, align 8, !tbaa !170
  %5 = load ptr, ptr %3, align 8
  %6 = load ptr, ptr %4, align 8, !tbaa !170
  %7 = getelementptr inbounds [2 x i8], ptr %6, i64 0, i64 0
  %8 = load ptr, ptr %5, align 8, !tbaa !130
  %9 = getelementptr inbounds ptr, ptr %8, i64 5
  %10 = load ptr, ptr %9, align 8
  call void %10(ptr noundef nonnull align 8 dereferenceable(8) %5, ptr noundef %7, i64 noundef 1)
  ret void
}

; Function Attrs: inlinehint mustprogress nounwind uwtable
define linkonce_odr hidden noundef zeroext i1 @_ZNK6google8protobuf15FieldDescriptor12is_extensionEv(ptr noundef nonnull align 8 dereferenceable(72) %0) #7 comdat align 2 {
  %2 = alloca ptr, align 8
  store ptr %0, ptr %2, align 8, !tbaa !58
  %3 = load ptr, ptr %2, align 8
  %4 = getelementptr inbounds nuw %"class.google::protobuf::FieldDescriptor", ptr %3, i32 0, i32 1
  %5 = load i8, ptr %4, align 1
  %6 = lshr i8 %5, 3
  %7 = and i8 %6, 1
  %8 = trunc i8 %7 to i1
  ret i1 %8
}

; Function Attrs: mustprogress uwtable
define hidden void @_ZNK6google8protobuf10TextFormat21FastFieldValuePrinter14PrintFieldNameERKNS0_7MessageEPKNS0_10ReflectionEPKNS0_15FieldDescriptorEPNS1_17BaseTextGeneratorE(ptr noundef nonnull align 8 dereferenceable(8) %0, ptr noundef nonnull align 8 dereferenceable(16) %1, ptr noundef %2, ptr noundef %3, ptr noundef %4) unnamed_addr #4 align 2 {
  %6 = alloca ptr, align 8
  %7 = alloca ptr, align 8
  %8 = alloca ptr, align 8
  %9 = alloca ptr, align 8
  %10 = alloca ptr, align 8
  store ptr %0, ptr %6, align 8, !tbaa !180
  store ptr %1, ptr %7, align 8, !tbaa !3
  store ptr %2, ptr %8, align 8, !tbaa !185
  store ptr %3, ptr %9, align 8, !tbaa !58
  store ptr %4, ptr %10, align 8, !tbaa !174
  %11 = load ptr, ptr %9, align 8, !tbaa !58
  %12 = call noundef zeroext i1 @_ZNK6google8protobuf15FieldDescriptor12is_extensionEv(ptr noundef nonnull align 8 dereferenceable(72) %11)
  br i1 %12, label %13, label %19

13:                                               ; preds = %5
  %14 = load ptr, ptr %10, align 8, !tbaa !174
  call void @_ZN6google8protobuf10TextFormat17BaseTextGenerator12PrintLiteralILm2EEEvRAT__Kc(ptr noundef nonnull align 8 dereferenceable(8) %14, ptr noundef nonnull align 1 dereferenceable(2) @.str.11)
  %15 = load ptr, ptr %10, align 8, !tbaa !174
  %16 = load ptr, ptr %9, align 8, !tbaa !58
  %17 = call noundef nonnull align 8 dereferenceable(32) ptr @_ZNK6google8protobuf15FieldDescriptor25PrintableNameForExtensionB5cxx11Ev(ptr noundef nonnull align 8 dereferenceable(72) %16)
  call void @_ZN6google8protobuf10TextFormat17BaseTextGenerator11PrintStringERKNSt7__cxx1112basic_stringIcSt11char_traitsIcESaIcEEE(ptr noundef nonnull align 8 dereferenceable(8) %15, ptr noundef nonnull align 8 dereferenceable(32) %17)
  %18 = load ptr, ptr %10, align 8, !tbaa !174
  call void @_ZN6google8protobuf10TextFormat17BaseTextGenerator12PrintLiteralILm2EEEvRAT__Kc(ptr noundef nonnull align 8 dereferenceable(8) %18, ptr noundef nonnull align 1 dereferenceable(2) @.str.12)
  br label %33

19:                                               ; preds = %5
  %20 = load ptr, ptr %9, align 8, !tbaa !58
  %21 = call noundef i32 @_ZNK6google8protobuf15FieldDescriptor4typeEv(ptr noundef nonnull align 8 dereferenceable(72) %20)
  %22 = icmp eq i32 %21, 10
  br i1 %22, label %23, label %28

23:                                               ; preds = %19
  %24 = load ptr, ptr %10, align 8, !tbaa !174
  %25 = load ptr, ptr %9, align 8, !tbaa !58
  %26 = call noundef ptr @_ZNK6google8protobuf15FieldDescriptor12message_typeEv(ptr noundef nonnull align 8 dereferenceable(72) %25)
  %27 = call noundef nonnull align 8 dereferenceable(32) ptr @_ZNK6google8protobuf10Descriptor4nameB5cxx11Ev(ptr noundef nonnull align 8 dereferenceable(136) %26)
  call void @_ZN6google8protobuf10TextFormat17BaseTextGenerator11PrintStringERKNSt7__cxx1112basic_stringIcSt11char_traitsIcESaIcEEE(ptr noundef nonnull align 8 dereferenceable(8) %24, ptr noundef nonnull align 8 dereferenceable(32) %27)
  br label %32

28:                                               ; preds = %19
  %29 = load ptr, ptr %10, align 8, !tbaa !174
  %30 = load ptr, ptr %9, align 8, !tbaa !58
  %31 = call noundef nonnull align 8 dereferenceable(32) ptr @_ZNK6google8protobuf15FieldDescriptor4nameB5cxx11Ev(ptr noundef nonnull align 8 dereferenceable(72) %30)
  call void @_ZN6google8protobuf10TextFormat17BaseTextGenerator11PrintStringERKNSt7__cxx1112basic_stringIcSt11char_traitsIcESaIcEEE(ptr noundef nonnull align 8 dereferenceable(8) %29, ptr noundef nonnull align 8 dereferenceable(32) %31)
  br label %32

32:                                               ; preds = %28, %23
  br label %33

33:                                               ; preds = %32, %13
  ret void
}