; Function Attrs: mustprogress uwtable
define hidden void @_ZNK6google8protobuf10TextFormat21FastFieldValuePrinter14PrintFieldNameERKNS0_7MessageEPKNS0_10ReflectionEPKNS0_15FieldDescriptorEPNS1_17BaseTextGeneratorE(ptr nonnull readnone align 8 captures(none) %0, ptr nonnull readnone align 8 captures(none) %1, ptr readnone captures(none) %2, ptr noundef %3, ptr noundef %4) unnamed_addr #3 align 2 personality ptr @__gxx_personality_v0 {
  %6 = alloca %class.anon, align 8
  %7 = alloca ptr, align 8
  %8 = alloca ptr, align 8
  %9 = getelementptr inbounds nuw i8, ptr %3, i64 1
  %10 = load i8, ptr %9, align 1
  %11 = and i8 %10, 8
  %.not = icmp eq i8 %11, 0
  br i1 %.not, label %26, label %12

12:                                               ; preds = %5
  %13 = load ptr, ptr %4, align 8, !tbaa !24
  %14 = getelementptr inbounds nuw i8, ptr %13, i64 40
  %15 = load ptr, ptr %14, align 8
  tail call void %15(ptr noundef nonnull align 8 dereferenceable(8) %4, ptr noundef nonnull @.str.11, i64 noundef 1)
  %16 = tail call noundef nonnull align 8 dereferenceable(32) ptr @_ZNK6google8protobuf15FieldDescriptor25PrintableNameForExtensionB5cxx11Ev(ptr noundef nonnull align 8 dereferenceable(72) %3)
  %17 = load ptr, ptr %16, align 8, !tbaa !48
  %18 = getelementptr inbounds nuw i8, ptr %16, i64 8
  %19 = load i64, ptr %18, align 8, !tbaa !9
  %20 = load ptr, ptr %4, align 8, !tbaa !24
  %21 = getelementptr inbounds nuw i8, ptr %20, i64 40
  %22 = load ptr, ptr %21, align 8
  tail call void %22(ptr noundef nonnull align 8 dereferenceable(8) %4, ptr noundef %17, i64 noundef %19)
  %23 = load ptr, ptr %4, align 8, !tbaa !24
  %24 = getelementptr inbounds nuw i8, ptr %23, i64 40
  %25 = load ptr, ptr %24, align 8
  tail call void %25(ptr noundef nonnull align 8 dereferenceable(8) %4, ptr noundef nonnull @.str.12, i64 noundef 1)
  br label %60

26:                                               ; preds = %5
  %27 = getelementptr inbounds nuw i8, ptr %3, i64 24
  %28 = load ptr, ptr %27, align 8, !tbaa !195
  %.not.i = icmp eq ptr %28, null
  br i1 %.not.i, label %_ZNK6google8protobuf15FieldDescriptor4typeEv.exit, label %29

29:                                               ; preds = %26
  call void @llvm.lifetime.start.p0(i64 8, ptr nonnull %7) #31
  store ptr @_ZN6google8protobuf15FieldDescriptor12TypeOnceInitEPKS1_, ptr %7, align 8, !tbaa !196
  call void @llvm.lifetime.start.p0(i64 8, ptr nonnull %8) #31
  store ptr %3, ptr %8, align 8, !tbaa !64
  call void @llvm.lifetime.start.p0(i64 16, ptr nonnull %6) #31
  store ptr %7, ptr %6, align 8, !tbaa !197
  %30 = getelementptr inbounds nuw i8, ptr %6, i64 8
  store ptr %8, ptr %30, align 8, !tbaa !76
  %31 = call align 8 ptr @llvm.threadlocal.address.p0(ptr align 8 @_ZSt15__once_callable)
  store ptr %6, ptr %31, align 8, !tbaa !196
  %32 = call align 8 ptr @llvm.threadlocal.address.p0(ptr align 8 @_ZSt11__once_call)
  store ptr @_ZZNSt9once_flag18_Prepare_executionC1IZSt9call_onceIPFvPKN6google8protobuf15FieldDescriptorEEJS7_EEvRS_OT_DpOT0_EUlvE_EERSB_ENUlvE_8__invokeEv, ptr %32, align 8, !tbaa !196
  %33 = invoke noundef i32 @pthread_once(ptr noundef nonnull align 4 dereferenceable(4) %28, ptr noundef nonnull @__once_proxy)
          to label %_ZL14__gthread_oncePiPFvvE.exit.i.i.i unwind label %36

_ZL14__gthread_oncePiPFvvE.exit.i.i.i:            ; preds = %29
  %.not.i.i.i = icmp eq i32 %33, 0
  br i1 %.not.i.i.i, label %_ZN6google8protobuf8internal9call_onceIJRSt9once_flagPFvPKNS0_15FieldDescriptorEES7_EEEvDpOT_.exit.i, label %34

34:                                               ; preds = %_ZL14__gthread_oncePiPFvvE.exit.i.i.i
  invoke void @_ZSt20__throw_system_errori(i32 noundef %33) #35
          to label %35 unwind label %36

35:                                               ; preds = %34
  unreachable

36:                                               ; preds = %34, %29
  %37 = landingpad { ptr, i32 }
          cleanup
  store ptr null, ptr %31, align 8, !tbaa !196
  store ptr null, ptr %32, align 8, !tbaa !196
  call void @llvm.lifetime.end.p0(i64 16, ptr nonnull %6) #31
  resume { ptr, i32 } %37

_ZN6google8protobuf8internal9call_onceIJRSt9once_flagPFvPKNS0_15FieldDescriptorEES7_EEEvDpOT_.exit.i: ; preds = %_ZL14__gthread_oncePiPFvvE.exit.i.i.i
  store ptr null, ptr %31, align 8, !tbaa !196
  store ptr null, ptr %32, align 8, !tbaa !196
  call void @llvm.lifetime.end.p0(i64 16, ptr nonnull %6) #31
  call void @llvm.lifetime.end.p0(i64 8, ptr nonnull %8) #31
  call void @llvm.lifetime.end.p0(i64 8, ptr nonnull %7) #31
  br label %_ZNK6google8protobuf15FieldDescriptor4typeEv.exit

_ZNK6google8protobuf15FieldDescriptor4typeEv.exit: ; preds = %26, %_ZN6google8protobuf8internal9call_onceIJRSt9once_flagPFvPKNS0_15FieldDescriptorEES7_EEEvDpOT_.exit.i
  %38 = getelementptr inbounds nuw i8, ptr %3, i64 2
  %39 = load i8, ptr %38, align 2, !tbaa !198
  %40 = icmp eq i8 %39, 10
  br i1 %40, label %41, label %51

41:                                               ; preds = %_ZNK6google8protobuf15FieldDescriptor4typeEv.exit
  %42 = call noundef ptr @_ZNK6google8protobuf15FieldDescriptor12message_typeEv(ptr noundef nonnull align 8 dereferenceable(72) %3)
  %43 = getelementptr inbounds nuw i8, ptr %42, i64 8
  %44 = load ptr, ptr %43, align 8, !tbaa !192
  %45 = load ptr, ptr %44, align 8, !tbaa !48
  %46 = getelementptr inbounds nuw i8, ptr %44, i64 8
  %47 = load i64, ptr %46, align 8, !tbaa !9
  %48 = load ptr, ptr %4, align 8, !tbaa !24
  %49 = getelementptr inbounds nuw i8, ptr %48, i64 40
  %50 = load ptr, ptr %49, align 8
  call void %50(ptr noundef nonnull align 8 dereferenceable(8) %4, ptr noundef %45, i64 noundef %47)
  br label %60

51:                                               ; preds = %_ZNK6google8protobuf15FieldDescriptor4typeEv.exit
  %52 = getelementptr inbounds nuw i8, ptr %3, i64 8
  %53 = load ptr, ptr %52, align 8, !tbaa !108
  %54 = load ptr, ptr %53, align 8, !tbaa !48
  %55 = getelementptr inbounds nuw i8, ptr %53, i64 8
  %56 = load i64, ptr %55, align 8, !tbaa !9
  %57 = load ptr, ptr %4, align 8, !tbaa !24
  %58 = getelementptr inbounds nuw i8, ptr %57, i64 40
  %59 = load ptr, ptr %58, align 8
  call void %59(ptr noundef nonnull align 8 dereferenceable(8) %4, ptr noundef %54, i64 noundef %56)
  br label %60

60:                                               ; preds = %41, %51, %12
  ret void
}